target datalayout = "e-m:e-p270:32:32-p271:32:32-p272:64:64-i64:64-i128:128-f80:128-n8:16:32:64-S128"
target triple = "x86_64-pc-linux-gnu"

; Function Attrs: nounwind sspstrong uwtable
define internal i32 @code_to_mbc(i32 noundef %0, ptr noundef %1, ptr noundef %2) #0 {
  %4 = alloca i32, align 4
  %5 = alloca ptr, align 8
  %6 = alloca ptr, align 8
  %7 = alloca ptr, align 8
  store i32 %0, ptr %4, align 4, !tbaa !17
  store ptr %1, ptr %5, align 8, !tbaa !13
  store ptr %2, ptr %6, align 8, !tbaa !14
  call void @llvm.lifetime.start.p0(i64 8, ptr %7) #4
  %8 = load ptr, ptr %5, align 8, !tbaa !13
  store ptr %8, ptr %7, align 8, !tbaa !13
  %9 = load i32, ptr %4, align 4, !tbaa !17
  %10 = and i32 %9, 65280
  %11 = icmp ne i32 %10, 0
  br i1 %11, label %12, label %19

12:                                               ; preds = %3
  %13 = load i32, ptr %4, align 4, !tbaa !17
  %14 = lshr i32 %13, 8
  %15 = and i32 %14, 255
  %16 = trunc i32 %15 to i8
  %17 = load ptr, ptr %7, align 8, !tbaa !13
  %18 = getelementptr inbounds nuw i8, ptr %17, i32 1
  store ptr %18, ptr %7, align 8, !tbaa !13
  store i8 %16, ptr %17, align 1, !tbaa !16
  br label %19

19:                                               ; preds = %12, %3
  %20 = load i32, ptr %4, align 4, !tbaa !17
  %21 = and i32 %20, 255
  %22 = trunc i32 %21 to i8
  %23 = load ptr, ptr %7, align 8, !tbaa !13
  %24 = getelementptr inbounds nuw i8, ptr %23, i32 1
  store ptr %24, ptr %7, align 8, !tbaa !13
  store i8 %22, ptr %23, align 1, !tbaa !16
  %25 = load ptr, ptr %7, align 8, !tbaa !13
  %26 = load ptr, ptr %5, align 8, !tbaa !13
  %27 = ptrtoint ptr %25 to i64
  %28 = ptrtoint ptr %26 to i64
  %29 = sub i64 %27, %28
  %30 = trunc i64 %29 to i32
  call void @llvm.lifetime.end.p0(i64 8, ptr %7) #4
  ret i32 %30
}